; Function Attrs: mustprogress uwtable
define hidden noundef zeroext i1 @_ZN11OpenImageIO6v3_1_010ZfileInput5closeEv(ptr noundef nonnull align 8 captures(none) dereferenceable(232) initializes((192, 200), (224, 225), (228, 232)) %0) unnamed_addr #6 align 2 personality ptr @__gxx_personality_v0 {
  %2 = getelementptr inbounds nuw i8, ptr %0, i64 216
  %3 = load ptr, ptr %2, align 8, !tbaa !11
  %.not = icmp eq ptr %3, null
  br i1 %.not, label %6, label %4

4:                                                ; preds = %1
  %5 = tail call i32 @gzclose(ptr noundef nonnull %3)
  br label %6

6:                                                ; preds = %4, %1
  %7 = getelementptr inbounds nuw i8, ptr %0, i64 184
  %8 = getelementptr inbounds nuw i8, ptr %0, i64 192
  store i64 0, ptr %8, align 8, !tbaa !65
  %9 = load ptr, ptr %7, align 8, !tbaa !48
  store i8 0, ptr %9, align 1, !tbaa !66
  store ptr null, ptr %2, align 8, !tbaa !11
  %10 = getelementptr inbounds nuw i8, ptr %0, i64 224
  store i8 0, ptr %10, align 8, !tbaa !46
  %11 = getelementptr inbounds nuw i8, ptr %0, i64 228
  store i32 0, ptr %11, align 4, !tbaa !47
  ret i1 true
}